; Function Attrs: mustprogress nofree norecurse nosync nounwind null_pointer_is_valid sspstrong willreturn memory(read, inaccessiblemem: none) uwtable
define i32 @wtap_dump_required_file_encap_type(ptr noundef readonly captures(none) %0) local_unnamed_addr #2 {
  %2 = getelementptr inbounds nuw i8, ptr %0, i64 8
  %3 = load i32, ptr %2, align 8
  %4 = icmp eq i32 %3, 1
  br i1 %4, label %5, label %8

5:                                                ; preds = %1
  %6 = load ptr, ptr %0, align 8
  %7 = load i32, ptr %6, align 4
  br label %8

8:                                                ; preds = %5, %1
  %.0 = phi i32 [ %7, %5 ], [ -1, %1 ]
  ret i32 %.0
}